; ModuleID = 'bench/ffmpeg/original/v4l2-common.ll'
source_filename = "bench/ffmpeg/original/v4l2-common.ll"
target datalayout = "e-m:e-p270:32:32-p271:32:32-p272:64:64-i64:64-i128:128-f80:128-n8:16:32:64-S128"
target triple = "x86_64-pc-linux-gnu"

%struct.fmt_map = type { i32, i32, i32 }

@ff_fmt_conversion_table = local_unnamed_addr constant [36 x %struct.fmt_map] [%struct.fmt_map { i32 0, i32 13, i32 842093913 }, %struct.fmt_map { i32 0, i32 13, i32 842094169 }, %struct.fmt_map { i32 4, i32 13, i32 1345466932 }, %struct.fmt_map { i32 1, i32 13, i32 1448695129 }, %struct.fmt_map { i32 15, i32 13, i32 1498831189 }, %struct.fmt_map { i32 7, i32 13, i32 1345401140 }, %struct.fmt_map { i32 6, i32 13, i32 961959257 }, %struct.fmt_map { i32 6, i32 13, i32 961893977 }, %struct.fmt_map { i32 39, i32 13, i32 1329743698 }, %struct.fmt_map { i32 38, i32 13, i32 1363298130 }, %struct.fmt_map { i32 37, i32 13, i32 1346520914 }, %struct.fmt_map { i32 36, i32 13, i32 1380075346 }, %struct.fmt_map { i32 3, i32 13, i32 861030210 }, %struct.fmt_map { i32 2, i32 13, i32 859981650 }, %struct.fmt_map { i32 121, i32 13, i32 875713112 }, %struct.fmt_map { i32 118, i32 13, i32 875714626 }, %struct.fmt_map { i32 28, i32 13, i32 875713089 }, %struct.fmt_map { i32 25, i32 13, i32 875708738 }, %struct.fmt_map { i32 121, i32 13, i32 877807426 }, %struct.fmt_map { i32 118, i32 13, i32 876758866 }, %struct.fmt_map { i32 8, i32 13, i32 1497715271 }, %struct.fmt_map { i32 30, i32 13, i32 540422489 }, %struct.fmt_map { i32 30, i32 13, i32 540422490 }, %struct.fmt_map { i32 23, i32 13, i32 842094158 }, %struct.fmt_map { i32 101, i32 13, i32 909203022 }, %struct.fmt_map { i32 188, i32 13, i32 875714126 }, %struct.fmt_map { i32 -1, i32 7, i32 1196444237 }, %struct.fmt_map { i32 -1, i32 7, i32 1195724874 }, %struct.fmt_map { i32 -1, i32 27, i32 875967048 }, %struct.fmt_map { i32 -1, i32 12, i32 877088845 }, %struct.fmt_map { i32 -1, i32 206, i32 1095323715 }, %struct.fmt_map { i32 139, i32 13, i32 825770306 }, %struct.fmt_map { i32 141, i32 13, i32 1196573255 }, %struct.fmt_map { i32 142, i32 13, i32 1195528775 }, %struct.fmt_map { i32 140, i32 13, i32 1111967570 }, %struct.fmt_map { i32 -1, i32 0, i32 0 }], align 16

; Function Attrs: nofree norecurse nosync nounwind memory(read, argmem: none, inaccessiblemem: none) uwtable
define i32 @ff_fmt_ff2v4l(i32 noundef %0, i32 noundef %1) local_unnamed_addr #0 {
  %3 = icmp eq i32 %0, -1
  br i1 %3, label %.split.us, label %.split

.split.us:                                        ; preds = %2
  switch i32 %1, label %.lr.ph.split [
    i32 13, label %.split17.us
    i32 0, label %.split17.us
  ]

4:                                                ; preds = %.lr.ph.split
  %indvars.iv.next41 = add nuw nsw i64 %indvars.iv40, 1
  %5 = getelementptr inbounds nuw [36 x %struct.fmt_map], ptr @ff_fmt_conversion_table, i64 0, i64 %indvars.iv.next41
  %6 = getelementptr inbounds nuw i8, ptr %5, i64 4
  %7 = load i32, ptr %6, align 4, !tbaa !4
  %8 = icmp eq i32 %7, %1
  br i1 %8, label %.split17.us, label %.lr.ph.split, !llvm.loop !9

.lr.ph.split:                                     ; preds = %.split.us, %4
  %indvars.iv40 = phi i64 [ %indvars.iv.next41, %4 ], [ 0, %.split.us ]
  %exitcond43 = icmp eq i64 %indvars.iv40, 34
  br i1 %exitcond43, label %.loopexit, label %4, !llvm.loop !9

.split:                                           ; preds = %2
  %9 = icmp eq i32 %1, 0
  br i1 %9, label %.split.split.us, label %.split.split

.split.split.us:                                  ; preds = %.split, %13
  %indvars.iv36 = phi i64 [ %indvars.iv.next37, %13 ], [ 0, %.split ]
  %10 = phi ptr [ %14, %13 ], [ @ff_fmt_conversion_table, %.split ]
  %11 = load i32, ptr %10, align 4, !tbaa !11
  %12 = icmp eq i32 %11, %0
  br i1 %12, label %.split17.us, label %13

13:                                               ; preds = %.split.split.us
  %indvars.iv.next37 = add nuw nsw i64 %indvars.iv36, 1
  %14 = getelementptr inbounds nuw [36 x %struct.fmt_map], ptr @ff_fmt_conversion_table, i64 0, i64 %indvars.iv.next37
  %exitcond39 = icmp eq i64 %indvars.iv.next37, 35
  br i1 %exitcond39, label %.loopexit, label %.split.split.us, !llvm.loop !9

.split.split:                                     ; preds = %.split, %23
  %indvars.iv = phi i64 [ %indvars.iv.next, %23 ], [ 0, %.split ]
  %15 = phi i32 [ %26, %23 ], [ 13, %.split ]
  %16 = phi ptr [ %24, %23 ], [ @ff_fmt_conversion_table, %.split ]
  %17 = icmp eq i32 %15, %1
  br i1 %17, label %18, label %23

18:                                               ; preds = %.split.split
  %19 = load i32, ptr %16, align 4, !tbaa !11
  %20 = icmp eq i32 %19, %0
  br i1 %20, label %.split17.us, label %23

.split17.us:                                      ; preds = %18, %.split.split.us, %4, %.split.us, %.split.us
  %.us-phi = phi ptr [ @ff_fmt_conversion_table, %.split.us ], [ @ff_fmt_conversion_table, %.split.us ], [ %5, %4 ], [ %10, %.split.split.us ], [ %16, %18 ]
  %21 = getelementptr inbounds nuw i8, ptr %.us-phi, i64 8
  %22 = load i32, ptr %21, align 4, !tbaa !12
  br label %.loopexit

23:                                               ; preds = %.split.split, %18
  %indvars.iv.next = add nuw nsw i64 %indvars.iv, 1
  %24 = getelementptr inbounds nuw [36 x %struct.fmt_map], ptr @ff_fmt_conversion_table, i64 0, i64 %indvars.iv.next
  %25 = getelementptr inbounds nuw i8, ptr %24, i64 4
  %26 = load i32, ptr %25, align 4, !tbaa !4
  %exitcond = icmp eq i64 %indvars.iv.next, 35
  br i1 %exitcond, label %.loopexit, label %.split.split, !llvm.loop !9

.loopexit:                                        ; preds = %23, %13, %.lr.ph.split, %.split17.us
  %.010 = phi i32 [ %22, %.split17.us ], [ 0, %.lr.ph.split ], [ 0, %13 ], [ 0, %23 ]
  ret i32 %.010
}

; Function Attrs: nofree norecurse nosync nounwind memory(none) uwtable
define i32 @ff_fmt_v4l2ff(i32 noundef %0, i32 noundef %1) local_unnamed_addr #1 {
  br label %7

3:                                                ; preds = %7
  %indvars.iv.next = add nuw nsw i64 %indvars.iv, 1
  %4 = getelementptr inbounds nuw [36 x %struct.fmt_map], ptr @ff_fmt_conversion_table, i64 0, i64 %indvars.iv.next
  %5 = getelementptr inbounds nuw i8, ptr %4, i64 4
  %6 = load i32, ptr %5, align 4, !tbaa !4
  %exitcond = icmp eq i64 %indvars.iv.next, 35
  br i1 %exitcond, label %.loopexit, label %7, !llvm.loop !13

7:                                                ; preds = %2, %3
  %indvars.iv = phi i64 [ 0, %2 ], [ %indvars.iv.next, %3 ]
  %8 = phi i32 [ 13, %2 ], [ %6, %3 ]
  %9 = phi ptr [ @ff_fmt_conversion_table, %2 ], [ %4, %3 ]
  %10 = getelementptr inbounds nuw i8, ptr %9, i64 8
  %11 = load i32, ptr %10, align 4, !tbaa !12
  %12 = icmp eq i32 %11, %0
  %13 = icmp eq i32 %8, %1
  %or.cond = and i1 %13, %12
  br i1 %or.cond, label %14, label %3

14:                                               ; preds = %7
  %15 = load i32, ptr %9, align 4, !tbaa !11
  br label %.loopexit

.loopexit:                                        ; preds = %3, %14
  %.08 = phi i32 [ %15, %14 ], [ -1, %3 ]
  ret i32 %.08
}

; Function Attrs: nofree norecurse nosync nounwind memory(none) uwtable
define i32 @ff_fmt_v4l2codec(i32 noundef %0) local_unnamed_addr #1 {
  %2 = icmp eq i32 %0, 842093913
  br i1 %2, label %._crit_edge11, label %.lr.ph

.lr.ph:                                           ; preds = %1, %4
  %indvars.iv10 = phi i64 [ %indvars.iv.next, %4 ], [ 0, %1 ]
  %indvars.iv.next = add nuw nsw i64 %indvars.iv10, 1
  %3 = getelementptr inbounds nuw [36 x %struct.fmt_map], ptr @ff_fmt_conversion_table, i64 0, i64 %indvars.iv.next
  %exitcond = icmp eq i64 %indvars.iv.next, 35
  br i1 %exitcond, label %._crit_edge, label %4, !llvm.loop !14

4:                                                ; preds = %.lr.ph
  %5 = getelementptr inbounds nuw i8, ptr %3, i64 8
  %6 = load i32, ptr %5, align 4, !tbaa !12
  %7 = icmp eq i32 %6, %0
  br i1 %7, label %._crit_edge11.loopexit, label %.lr.ph, !llvm.loop !14

._crit_edge:                                      ; preds = %.lr.ph
  %8 = getelementptr inbounds nuw i8, ptr %3, i64 4
  %9 = load i32, ptr %8, align 4, !tbaa !4
  br label %._crit_edge11, !llvm.loop !14

._crit_edge11.loopexit:                           ; preds = %4
  %10 = getelementptr inbounds nuw i8, ptr %3, i64 4
  %11 = load i32, ptr %10, align 4, !tbaa !4
  br label %._crit_edge11

._crit_edge11:                                    ; preds = %._crit_edge11.loopexit, %._crit_edge, %1
  %.lcssa = phi i32 [ %9, %._crit_edge ], [ 13, %1 ], [ %11, %._crit_edge11.loopexit ]
  ret i32 %.lcssa
}


!llvm.module.flags = !{!0, !1, !2, !3}

!0 = !{i32 1, !"wchar_size", i32 4}
!1 = !{i32 8, !"PIC Level", i32 2}
!2 = !{i32 7, !"uwtable", i32 2}
!3 = !{i32 1, !"override-stack-alignment", i32 16}
!4 = !{!5, !6, i64 4}
!5 = !{!"fmt_map", !6, i64 0, !6, i64 4, !6, i64 8}
!6 = !{!"int", !7, i64 0}
!7 = !{!"omnipotent char", !8, i64 0}
!8 = !{!"Simple C/C++ TBAA"}
!9 = distinct !{!9, !10}
!10 = !{!"llvm.loop.mustprogress"}
!11 = !{!5, !6, i64 0}
!12 = !{!5, !6, i64 8}
!13 = distinct !{!13, !10}
!14 = distinct !{!14, !10}
